; Function Attrs: nounwind uwtable
define dso_local range(i32 -1, 1) i32 @PyRun_AnyFile(ptr noundef %0, ptr noundef %1) local_unnamed_addr #0 {
  %.not.i = icmp eq ptr %1, null
  br i1 %.not.i, label %.thread.i, label %4

.thread.i:                                        ; preds = %2
  %3 = tail call i32 @_PyRun_AnyFileObject(ptr noundef %0, ptr noundef null, i32 noundef 0, ptr noundef null)
  br label %PyRun_AnyFileExFlags.exit

4:                                                ; preds = %2
  %5 = tail call ptr @PyUnicode_DecodeFSDefault(ptr noundef nonnull %1) #8
  %6 = icmp eq ptr %5, null
  br i1 %6, label %7, label %10

7:                                                ; preds = %4
  %8 = tail call align 8 ptr @llvm.threadlocal.address.p0(ptr align 8 @_Py_tss_tstate)
  %9 = load ptr, ptr %8, align 8, !tbaa !4
  tail call fastcc void @_PyErr_PrintEx(ptr noundef %9, i32 noundef 1)
  br label %PyRun_AnyFileExFlags.exit

10:                                               ; preds = %4
  %11 = tail call i32 @_Py_FdIsInteractive(ptr noundef %0, ptr noundef nonnull %5) #8
  %.not.i2 = icmp eq i32 %11, 0
  br i1 %.not.i2, label %14, label %12

12:                                               ; preds = %10
  %13 = tail call i32 @_PyRun_InteractiveLoopObject(ptr noundef %0, ptr noundef nonnull %5, ptr noundef null)
  br label %_PyRun_AnyFileObject.exit

14:                                               ; preds = %10
  %15 = tail call i32 @_PyRun_SimpleFileObject(ptr noundef %0, ptr noundef nonnull %5, i32 noundef 0, ptr noundef null)
  br label %_PyRun_AnyFileObject.exit

_PyRun_AnyFileObject.exit:                        ; preds = %12, %14
  %.0.i3 = phi i32 [ %13, %12 ], [ %15, %14 ]
  %16 = load i32, ptr %5, align 8, !tbaa !9
  %.not.i.i.i = icmp sgt i32 %16, -1
  br i1 %.not.i.i.i, label %17, label %PyRun_AnyFileExFlags.exit

17:                                               ; preds = %_PyRun_AnyFileObject.exit
  %18 = add nsw i32 %16, -1
  store i32 %18, ptr %5, align 8, !tbaa !9
  %19 = icmp eq i32 %18, 0
  br i1 %19, label %20, label %PyRun_AnyFileExFlags.exit

20:                                               ; preds = %17
  tail call void @_Py_Dealloc(ptr noundef nonnull %5) #8
  br label %PyRun_AnyFileExFlags.exit

PyRun_AnyFileExFlags.exit:                        ; preds = %.thread.i, %7, %_PyRun_AnyFileObject.exit, %17, %20
  %.0.i = phi i32 [ -1, %7 ], [ %3, %.thread.i ], [ %.0.i3, %_PyRun_AnyFileObject.exit ], [ %.0.i3, %17 ], [ %.0.i3, %20 ]
  ret i32 %.0.i
}